target datalayout = "e-m:e-p270:32:32-p271:32:32-p272:64:64-i64:64-i128:128-f80:128-n8:16:32:64-S128"
target triple = "x86_64-pc-linux-gnu"

@hfinfo_char_value_format_display.hex_digits = internal constant [16 x i8] c"0123456789abcdef", align 16
@g_ascii_table = external constant ptr, align 8
@.str.127 = private unnamed_addr constant [17 x i8] c"Invalid base: %d\00", align 1

; Function Attrs: null_pointer_is_valid sspstrong uwtable
define hidden ptr @hfinfo_char_value_format_display(i32 noundef %0, ptr noundef %1, i32 noundef %2) #0 {
  %4 = alloca i32, align 4
  %5 = alloca ptr, align 8
  %6 = alloca i32, align 4
  %7 = alloca ptr, align 8
  store i32 %0, ptr %4, align 4
  store ptr %1, ptr %5, align 8
  store i32 %2, ptr %6, align 4
  call void @llvm.lifetime.start.p0(i64 8, ptr %7) #24
  %8 = load ptr, ptr %5, align 8
  %9 = getelementptr i8, ptr %8, i64 6
  store ptr %9, ptr %7, align 8
  %10 = load ptr, ptr %7, align 8
  store i8 0, ptr %10, align 1
  %11 = load ptr, ptr %7, align 8
  %12 = getelementptr i8, ptr %11, i32 -1
  store ptr %12, ptr %7, align 8
  store i8 39, ptr %12, align 1
  %13 = load ptr, ptr @g_ascii_table, align 8
  %14 = load i32, ptr %6, align 4
  %15 = trunc i32 %14 to i8
  %16 = zext i8 %15 to i64
  %17 = getelementptr i16, ptr %13, i64 %16
  %18 = load i16, ptr %17, align 2
  %19 = zext i16 %18 to i32
  %20 = and i32 %19, 64
  %21 = icmp ne i32 %20, 0
  br i1 %21, label %22, label %36

22:                                               ; preds = %3
  %23 = load i32, ptr %6, align 4
  %24 = trunc i32 %23 to i8
  %25 = load ptr, ptr %7, align 8
  %26 = getelementptr i8, ptr %25, i32 -1
  store ptr %26, ptr %7, align 8
  store i8 %24, ptr %26, align 1
  %27 = load i32, ptr %6, align 4
  %28 = icmp eq i32 %27, 92
  br i1 %28, label %32, label %29

29:                                               ; preds = %22
  %30 = load i32, ptr %6, align 4
  %31 = icmp eq i32 %30, 39
  br i1 %31, label %32, label %35

32:                                               ; preds = %29, %22
  %33 = load ptr, ptr %7, align 8
  %34 = getelementptr i8, ptr %33, i32 -1
  store ptr %34, ptr %7, align 8
  store i8 92, ptr %34, align 1
  br label %35

35:                                               ; preds = %32, %29
  br label %114

36:                                               ; preds = %3
  %37 = load i32, ptr %6, align 4
  switch i32 %37, label %62 [
    i32 0, label %38
    i32 7, label %41
    i32 8, label %44
    i32 12, label %47
    i32 10, label %50
    i32 13, label %53
    i32 9, label %56
    i32 11, label %59
  ]

38:                                               ; preds = %36
  %39 = load ptr, ptr %7, align 8
  %40 = getelementptr i8, ptr %39, i32 -1
  store ptr %40, ptr %7, align 8
  store i8 48, ptr %40, align 1
  br label %111

41:                                               ; preds = %36
  %42 = load ptr, ptr %7, align 8
  %43 = getelementptr i8, ptr %42, i32 -1
  store ptr %43, ptr %7, align 8
  store i8 97, ptr %43, align 1
  br label %111

44:                                               ; preds = %36
  %45 = load ptr, ptr %7, align 8
  %46 = getelementptr i8, ptr %45, i32 -1
  store ptr %46, ptr %7, align 8
  store i8 98, ptr %46, align 1
  br label %111

47:                                               ; preds = %36
  %48 = load ptr, ptr %7, align 8
  %49 = getelementptr i8, ptr %48, i32 -1
  store ptr %49, ptr %7, align 8
  store i8 102, ptr %49, align 1
  br label %111

50:                                               ; preds = %36
  %51 = load ptr, ptr %7, align 8
  %52 = getelementptr i8, ptr %51, i32 -1
  store ptr %52, ptr %7, align 8
  store i8 110, ptr %52, align 1
  br label %111

53:                                               ; preds = %36
  %54 = load ptr, ptr %7, align 8
  %55 = getelementptr i8, ptr %54, i32 -1
  store ptr %55, ptr %7, align 8
  store i8 114, ptr %55, align 1
  br label %111

56:                                               ; preds = %36
  %57 = load ptr, ptr %7, align 8
  %58 = getelementptr i8, ptr %57, i32 -1
  store ptr %58, ptr %7, align 8
  store i8 116, ptr %58, align 1
  br label %111

59:                                               ; preds = %36
  %60 = load ptr, ptr %7, align 8
  %61 = getelementptr i8, ptr %60, i32 -1
  store ptr %61, ptr %7, align 8
  store i8 118, ptr %61, align 1
  br label %111

62:                                               ; preds = %36
  %63 = load i32, ptr %4, align 4
  %64 = and i32 %63, 255
  switch i32 %64, label %107 [
    i32 3, label %65
    i32 2, label %88
  ]

65:                                               ; preds = %62
  %66 = load i32, ptr %6, align 4
  %67 = and i32 %66, 7
  %68 = add i32 %67, 48
  %69 = trunc i32 %68 to i8
  %70 = load ptr, ptr %7, align 8
  %71 = getelementptr i8, ptr %70, i32 -1
  store ptr %71, ptr %7, align 8
  store i8 %69, ptr %71, align 1
  %72 = load i32, ptr %6, align 4
  %73 = lshr i32 %72, 3
  store i32 %73, ptr %6, align 4
  %74 = load i32, ptr %6, align 4
  %75 = and i32 %74, 7
  %76 = add i32 %75, 48
  %77 = trunc i32 %76 to i8
  %78 = load ptr, ptr %7, align 8
  %79 = getelementptr i8, ptr %78, i32 -1
  store ptr %79, ptr %7, align 8
  store i8 %77, ptr %79, align 1
  %80 = load i32, ptr %6, align 4
  %81 = lshr i32 %80, 3
  store i32 %81, ptr %6, align 4
  %82 = load i32, ptr %6, align 4
  %83 = and i32 %82, 7
  %84 = add i32 %83, 48
  %85 = trunc i32 %84 to i8
  %86 = load ptr, ptr %7, align 8
  %87 = getelementptr i8, ptr %86, i32 -1
  store ptr %87, ptr %7, align 8
  store i8 %85, ptr %87, align 1
  br label %110

88:                                               ; preds = %62
  %89 = load i32, ptr %6, align 4
  %90 = and i32 %89, 15
  %91 = zext i32 %90 to i64
  %92 = getelementptr [16 x i8], ptr @hfinfo_char_value_format_display.hex_digits, i64 0, i64 %91
  %93 = load i8, ptr %92, align 1
  %94 = load ptr, ptr %7, align 8
  %95 = getelementptr i8, ptr %94, i32 -1
  store ptr %95, ptr %7, align 8
  store i8 %93, ptr %95, align 1
  %96 = load i32, ptr %6, align 4
  %97 = lshr i32 %96, 4
  store i32 %97, ptr %6, align 4
  %98 = load i32, ptr %6, align 4
  %99 = and i32 %98, 15
  %100 = zext i32 %99 to i64
  %101 = getelementptr [16 x i8], ptr @hfinfo_char_value_format_display.hex_digits, i64 0, i64 %100
  %102 = load i8, ptr %101, align 1
  %103 = load ptr, ptr %7, align 8
  %104 = getelementptr i8, ptr %103, i32 -1
  store ptr %104, ptr %7, align 8
  store i8 %102, ptr %104, align 1
  %105 = load ptr, ptr %7, align 8
  %106 = getelementptr i8, ptr %105, i32 -1
  store ptr %106, ptr %7, align 8
  store i8 120, ptr %106, align 1
  br label %110

107:                                              ; preds = %62
  %108 = load i32, ptr %4, align 4
  %109 = and i32 %108, 255
  call void (ptr, ...) @proto_report_dissector_bug(ptr noundef @.str.127, i32 noundef %109) #27
  unreachable

110:                                              ; preds = %88, %65
  br label %111

111:                                              ; preds = %110, %59, %56, %53, %50, %47, %44, %41, %38
  %112 = load ptr, ptr %7, align 8
  %113 = getelementptr i8, ptr %112, i32 -1
  store ptr %113, ptr %7, align 8
  store i8 92, ptr %113, align 1
  br label %114

114:                                              ; preds = %111, %35
  %115 = load ptr, ptr %7, align 8
  %116 = getelementptr i8, ptr %115, i32 -1
  store ptr %116, ptr %7, align 8
  store i8 39, ptr %116, align 1
  %117 = load ptr, ptr %7, align 8
  call void @llvm.lifetime.end.p0(i64 8, ptr %7) #24
  ret ptr %117
}