; Function Attrs: null_pointer_is_valid sspstrong uwtable
define hidden noundef ptr @hfinfo_char_value_format_display(i32 noundef %0, ptr noundef writeonly captures(ret: address, provenance) initializes((5, 7)) %1, i32 noundef %2) local_unnamed_addr #0 {
  %4 = getelementptr i8, ptr %1, i64 6
  store i8 0, ptr %4, align 1
  %5 = getelementptr i8, ptr %1, i64 5
  store i8 39, ptr %5, align 1
  %6 = load ptr, ptr @g_ascii_table, align 8
  %.mask = and i32 %2, 255
  %7 = zext nneg i32 %.mask to i64
  %8 = getelementptr i16, ptr %6, i64 %7
  %9 = load i16, ptr %8, align 2
  %10 = and i16 %9, 64
  %.not = icmp eq i16 %10, 0
  br i1 %.not, label %16, label %11

11:                                               ; preds = %3
  %12 = trunc i32 %2 to i8
  %13 = getelementptr i8, ptr %1, i64 4
  store i8 %12, ptr %13, align 1
  switch i32 %2, label %50 [
    i32 92, label %14
    i32 39, label %14
  ]

14:                                               ; preds = %11, %11
  %15 = getelementptr i8, ptr %1, i64 3
  store i8 92, ptr %15, align 1
  br label %50

16:                                               ; preds = %3
  %17 = icmp ult i32 %2, 14
  br i1 %17, label %switch.hole_check, label %18

18:                                               ; preds = %switch.hole_check, %16
  %trunc = trunc i32 %0 to i8
  switch i8 %trunc, label %44 [
    i8 3, label %19
    i8 2, label %32
  ]

19:                                               ; preds = %18
  %20 = trunc i32 %2 to i8
  %21 = and i8 %20, 7
  %22 = or disjoint i8 %21, 48
  %23 = getelementptr i8, ptr %1, i64 4
  store i8 %22, ptr %23, align 1
  %24 = lshr i8 %20, 3
  %25 = and i8 %24, 7
  %26 = or disjoint i8 %25, 48
  %27 = getelementptr i8, ptr %1, i64 3
  store i8 %26, ptr %27, align 1
  %28 = lshr i32 %2, 6
  %29 = trunc i32 %28 to i8
  %30 = and i8 %29, 7
  %31 = or disjoint i8 %30, 48
  br label %47

32:                                               ; preds = %18
  %33 = and i32 %2, 15
  %34 = zext nneg i32 %33 to i64
  %35 = getelementptr [16 x i8], ptr @hfinfo_char_value_format_display.hex_digits, i64 0, i64 %34
  %36 = load i8, ptr %35, align 1
  %37 = getelementptr i8, ptr %1, i64 4
  store i8 %36, ptr %37, align 1
  %38 = lshr i32 %2, 4
  %39 = and i32 %38, 15
  %40 = zext nneg i32 %39 to i64
  %41 = getelementptr [16 x i8], ptr @hfinfo_char_value_format_display.hex_digits, i64 0, i64 %40
  %42 = load i8, ptr %41, align 1
  %43 = getelementptr i8, ptr %1, i64 3
  store i8 %42, ptr %43, align 1
  br label %47

44:                                               ; preds = %18
  %45 = and i32 %0, 255
  tail call void (ptr, ...) @proto_report_dissector_bug(ptr noundef nonnull @.str.127, i32 noundef %45) #37
  unreachable

switch.hole_check:                                ; preds = %16
  %switch.maskindex = trunc nuw i32 %2 to i16
  %switch.shifted = lshr i16 16257, %switch.maskindex
  %switch.lobit = trunc i16 %switch.shifted to i1
  br i1 %switch.lobit, label %switch.lookup, label %18

switch.lookup:                                    ; preds = %switch.hole_check
  %46 = zext nneg i32 %2 to i64
  %switch.gep = getelementptr inbounds nuw [14 x i8], ptr @switch.table.hfinfo_char_value_format_display, i64 0, i64 %46
  %switch.load = load i8, ptr %switch.gep, align 1
  br label %47

47:                                               ; preds = %switch.lookup, %19, %32
  %.sink38 = phi i64 [ 2, %19 ], [ 2, %32 ], [ 4, %switch.lookup ]
  %.sink = phi i8 [ %31, %19 ], [ 120, %32 ], [ %switch.load, %switch.lookup ]
  %48 = getelementptr i8, ptr %1, i64 %.sink38
  store i8 %.sink, ptr %48, align 1
  %49 = getelementptr i8, ptr %48, i64 -1
  store i8 92, ptr %49, align 1
  br label %50

50:                                               ; preds = %11, %14, %47
  %.0 = phi ptr [ %15, %14 ], [ %13, %11 ], [ %49, %47 ]
  %51 = getelementptr i8, ptr %.0, i64 -1
  store i8 39, ptr %51, align 1
  ret ptr %51
}